(lp0
S'0100000001a97830933769fe33c6155286ffae34db44c6b8783a2d8ca52ebee6414d399ec3000000008c493046022100b832f99c39cde94d904e98a06a1d89e099c89fe84d81928c3fa2b696380d1051022100ca2ee49192a86d08fd14a386f22675263afb41c71590a1a9953bb6220f3a9c4b014104392b964e911955ed50e4e368a9476bc3f9dcc134280e15636430eb91145dab739f0d68b82cf33003379d885a0b212ac95e9cddfd2d391807934d25995468bc55ffffffff0101000000000000001976a914c8e90996c7c6080ee06284600c684ed904d14c5c88ac00000000'
p1
a.